; Function Attrs: null_pointer_is_valid sspstrong uwtable
define internal noalias noundef ptr @ieee1905_fragment_persistent_key(ptr noundef readonly captures(none) %0, i32 noundef %1, ptr readnone captures(none) %2) #0 {
  %4 = getelementptr inbounds nuw i8, ptr %0, i64 208
  %5 = getelementptr inbounds nuw i8, ptr %0, i64 216
  %6 = load ptr, ptr %5, align 8
  %7 = icmp eq ptr %6, null
  br i1 %7, label %43, label %8

8:                                                ; preds = %3
  %9 = getelementptr inbounds nuw i8, ptr %0, i64 240
  %10 = load ptr, ptr %9, align 8
  %11 = icmp eq ptr %10, null
  br i1 %11, label %43, label %12

12:                                               ; preds = %8
  %13 = getelementptr inbounds nuw i8, ptr %0, i64 232
  %14 = tail call noalias dereferenceable_or_null(56) ptr @g_slice_alloc(i64 noundef 56) #16
  %15 = trunc i32 %1 to i8
  %16 = getelementptr inbounds nuw i8, ptr %14, i64 52
  store i8 %15, ptr %16, align 4
  %17 = load i32, ptr %4, align 8
  %18 = getelementptr inbounds nuw i8, ptr %0, i64 212
  %19 = load i32, ptr %18, align 4
  %20 = load ptr, ptr %5, align 8
  tail call void @llvm.memset.p0.i64(ptr noundef align 8 dereferenceable(24) %14, i8 0, i64 24, i1 false)
  store i32 %17, ptr %14, align 8
  %21 = icmp eq i32 %19, 0
  br i1 %21, label %copy_address.exit, label %22

22:                                               ; preds = %12
  %23 = sext i32 %19 to i64
  %24 = tail call ptr @wmem_memdup(ptr noundef null, ptr noundef %20, i64 noundef %23) #17
  %25 = getelementptr inbounds nuw i8, ptr %14, i64 16
  store ptr %24, ptr %25, align 8
  %26 = getelementptr inbounds nuw i8, ptr %14, i64 8
  store ptr %24, ptr %26, align 8
  %27 = getelementptr inbounds nuw i8, ptr %14, i64 4
  store i32 %19, ptr %27, align 4
  br label %copy_address.exit

copy_address.exit:                                ; preds = %12, %22
  %28 = getelementptr inbounds nuw i8, ptr %14, i64 24
  %29 = load i32, ptr %13, align 8
  %30 = getelementptr inbounds nuw i8, ptr %0, i64 236
  %31 = load i32, ptr %30, align 4
  %32 = load ptr, ptr %9, align 8
  tail call void @llvm.memset.p0.i64(ptr noundef nonnull align 8 dereferenceable(24) %28, i8 0, i64 24, i1 false)
  store i32 %29, ptr %28, align 8
  %33 = icmp eq i32 %31, 0
  br i1 %33, label %copy_address.exit11, label %34

34:                                               ; preds = %copy_address.exit
  %35 = sext i32 %31 to i64
  %36 = tail call ptr @wmem_memdup(ptr noundef null, ptr noundef %32, i64 noundef %35) #17
  %37 = getelementptr inbounds nuw i8, ptr %14, i64 40
  store ptr %36, ptr %37, align 8
  %38 = getelementptr inbounds nuw i8, ptr %14, i64 32
  store ptr %36, ptr %38, align 8
  %39 = getelementptr inbounds nuw i8, ptr %14, i64 28
  store i32 %31, ptr %39, align 4
  br label %copy_address.exit11

copy_address.exit11:                              ; preds = %copy_address.exit, %34
  %40 = getelementptr inbounds nuw i8, ptr %0, i64 256
  %41 = load i32, ptr %40, align 8
  %42 = getelementptr inbounds nuw i8, ptr %14, i64 48
  store i32 %41, ptr %42, align 8
  br label %43

43:                                               ; preds = %3, %8, %copy_address.exit11
  %.0 = phi ptr [ %14, %copy_address.exit11 ], [ null, %8 ], [ null, %3 ]
  ret ptr %.0
}